target datalayout = "e-m:e-p270:32:32-p271:32:32-p272:64:64-i64:64-i128:128-f80:128-n8:16:32:64-S128"
target triple = "x86_64-pc-linux-gnu"

; Function Attrs: nounwind uwtable
define i32 @stb__Mul8Bit(i32 noundef %0, i32 noundef %1) #0 {
  %3 = alloca i32, align 4
  %4 = alloca i32, align 4
  %5 = alloca i32, align 4
  store i32 %0, ptr %3, align 4, !tbaa !3
  store i32 %1, ptr %4, align 4, !tbaa !3
  call void @llvm.lifetime.start.p0(i64 4, ptr %5) #4
  %6 = load i32, ptr %3, align 4, !tbaa !3
  %7 = load i32, ptr %4, align 4, !tbaa !3
  %8 = mul nsw i32 %6, %7
  %9 = add nsw i32 %8, 128
  store i32 %9, ptr %5, align 4, !tbaa !3
  %10 = load i32, ptr %5, align 4, !tbaa !3
  %11 = load i32, ptr %5, align 4, !tbaa !3
  %12 = ashr i32 %11, 8
  %13 = add nsw i32 %10, %12
  %14 = ashr i32 %13, 8
  call void @llvm.lifetime.end.p0(i64 4, ptr %5) #4
  ret i32 %14
}

; Function Attrs: nounwind uwtable
define zeroext i16 @stb__As16Bit(i32 noundef %0, i32 noundef %1, i32 noundef %2) #0 {
  %4 = alloca i32, align 4
  %5 = alloca i32, align 4
  %6 = alloca i32, align 4
  store i32 %0, ptr %4, align 4, !tbaa !3
  store i32 %1, ptr %5, align 4, !tbaa !3
  store i32 %2, ptr %6, align 4, !tbaa !3
  %7 = load i32, ptr %4, align 4, !tbaa !3
  %8 = call i32 @stb__Mul8Bit(i32 noundef %7, i32 noundef 31)
  %9 = shl i32 %8, 11
  %10 = load i32, ptr %5, align 4, !tbaa !3
  %11 = call i32 @stb__Mul8Bit(i32 noundef %10, i32 noundef 63)
  %12 = shl i32 %11, 5
  %13 = add nsw i32 %9, %12
  %14 = load i32, ptr %6, align 4, !tbaa !3
  %15 = call i32 @stb__Mul8Bit(i32 noundef %14, i32 noundef 31)
  %16 = add nsw i32 %13, %15
  %17 = trunc i32 %16 to i16
  ret i16 %17
}