; Function Attrs: mustprogress nofree norecurse nosync nounwind willreturn memory(none) uwtable
define zeroext i16 @stb__As16Bit(i32 noundef %0, i32 noundef %1, i32 noundef %2) local_unnamed_addr #0 {
  %4 = mul nsw i32 %0, 31
  %5 = add nsw i32 %4, 128
  %6 = lshr i32 %5, 8
  %7 = add i32 %6, %5
  %8 = shl i32 %7, 3
  %9 = and i32 %8, 63488
  %10 = mul nsw i32 %1, 63
  %11 = add nsw i32 %10, 128
  %12 = lshr i32 %11, 8
  %13 = add i32 %12, %11
  %14 = lshr i32 %13, 3
  %15 = and i32 %14, 65504
  %16 = add nuw nsw i32 %15, %9
  %17 = mul nsw i32 %2, 31
  %18 = add nsw i32 %17, 128
  %19 = lshr i32 %18, 8
  %20 = add i32 %19, %18
  %21 = lshr i32 %20, 8
  %22 = add nuw nsw i32 %16, %21
  %23 = trunc i32 %22 to i16
  ret i16 %23
}